Certificate:
    Data:
        Version: 3 (0x2)
        Serial Number:
            80:24:72:bd:65:ed:0f:ed
    Signature Algorithm: sha384WithRSAEncryption
        Issuer: C=US, ST=District of Columbia, L=Washington, O=Wireless Innovation Forum, OU=www.wirelessinnovation.org, CN=WInnForum RSA Root CA-1
        Validity
            Not Before: Oct 30 15:16:17 2017 GMT
            Not After : Oct 26 15:16:17 2032 GMT
        Subject: C=US, ST=District of Columbia, L=Washington, O=Wireless Innovation Forum, OU=www.wirelessinnovation.org, CN=WInnForum RSA Installer CA-1
        Subject Public Key Info:
            Public Key Algorithm: rsaEncryption
                Public-Key: (4096 bit)
                Modulus:
                    00:eb:56:a3:8a:67:31:50:39:17:29:34:6f:73:bd:
                    c1:3c:0e:65:26:c5:d9:bb:78:92:ae:d3:89:19:4b:
                    b5:99:b4:d7:77:e2:79:c0:df:19:09:18:05:60:d5:
                    68:c1:08:60:b6:49:19:42:5e:02:22:94:e4:f7:f6:
                    bc:0d:f7:cb:28:d4:fd:f6:29:ce:e5:9f:53:94:9a:
                    08:da:18:5d:27:d1:3a:65:3c:b0:77:5c:e2:06:07:
                    85:71:73:10:19:9a:e9:39:da:75:9d:9c:13:5b:d0:
                    e0:1a:fa:a8:22:9d:85:d3:32:81:be:8f:63:cd:db:
                    67:8d:b0:45:7f:a6:c8:0e:d1:f9:55:2b:7c:9a:d7:
                    49:36:27:d8:48:ee:c5:58:10:23:26:8b:6d:93:a5:
                    d5:b1:d1:15:80:4d:f8:0c:42:37:7d:59:11:de:94:
                    66:0c:c1:72:58:36:94:6b:96:19:1b:42:c0:6b:ee:
                    bd:f3:83:c2:df:30:bb:92:d2:60:80:49:98:8d:20:
                    ac:b7:ce:76:02:56:3e:3b:15:02:42:88:a0:f5:fd:
                    f4:01:2d:2f:23:a6:0a:e0:84:93:b8:d7:b7:07:9d:
                    8b:d0:a9:c4:fa:c8:9c:c5:98:f2:28:7e:26:5d:37:
                    7c:9e:f1:86:fe:6e:e7:dc:ca:f1:90:50:f8:35:b1:
                    e0:86:f1:1f:cc:f5:8b:b9:8b:d8:76:71:e6:03:0d:
                    ff:b2:82:a8:ad:68:ef:e2:dc:8b:52:77:b8:5a:e4:
                    ae:a6:eb:ae:af:e4:41:73:a3:30:6f:16:39:a8:2b:
                    d7:9d:36:61:a1:80:36:52:78:43:fe:57:20:23:86:
                    52:87:69:3a:76:c3:b4:9d:2e:6c:2d:e4:4a:c3:be:
                    ec:cf:f5:79:15:1e:d7:d7:29:21:4d:46:c7:4b:29:
                    38:4c:26:e1:f3:c1:39:ff:2d:63:32:17:28:de:a4:
                    77:c6:86:cd:15:07:90:65:05:8d:69:b7:1c:c1:31:
                    d9:7d:50:cb:38:2e:88:bb:7d:92:a8:6e:14:ed:db:
                    b5:56:9e:09:30:20:ea:f5:00:1e:65:a7:76:3d:a8:
                    d2:12:12:68:d6:e5:6d:a8:9b:78:d7:2a:b6:67:96:
                    e9:fa:92:fa:3a:73:ac:c4:b2:42:c2:d4:e7:d5:f3:
                    95:17:1f:0d:26:b1:e3:4d:f2:2e:0e:d1:a7:d8:ec:
                    1d:ba:7c:8a:c3:a9:cf:5a:e3:d8:eb:8f:fe:12:5d:
                    2a:0f:16:25:a1:ab:82:d1:e4:14:e8:52:6d:68:3c:
                    3b:08:b1:8b:de:0b:c5:12:5b:59:92:1a:97:c7:2a:
                    10:af:bf:c7:37:b4:e1:74:32:d7:21:64:f0:1b:15:
                    90:71:fd
                Exponent: 65537 (0x10001)
        X509v3 extensions:
            X509v3 Subject Key Identifier: 
                A5:E9:A1:75:3B:47:14:9D:1A:C6:46:D4:E5:28:CC:45:63:73:73:85
            X509v3 Authority Key Identifier: 
                keyid:67:33:3A:8F:C2:49:99:09:E2:0F:1F:2C:C1:98:F7:32:D5:5A:A6:C3

            X509v3 Basic Constraints: critical
                CA:TRUE, pathlen:0
            X509v3 Key Usage: critical
                Digital Signature, Certificate Sign, CRL Sign
            X509v3 Certificate Policies: 
                Policy: 2.16.840.1.114412.2.1
                  CPS: https://www.digicert.com/CPS
                Policy: ROLE_CA
                Policy: ROLE_INSTALLER

    Signature Algorithm: sha384WithRSAEncryption
         25:ae:fb:bd:9e:1c:92:4f:0e:ba:09:a9:be:ed:fa:8a:c1:9d:
         e5:0b:93:c4:72:b8:bc:90:ed:b3:da:66:8d:c5:b1:bf:5b:47:
         f8:9d:df:00:2a:f4:06:49:c6:a4:10:88:88:34:23:89:cd:6e:
         29:ad:9c:d8:7a:68:e8:a8:f7:b8:42:ee:0c:bb:54:fb:a3:11:
         bd:21:09:11:a2:6b:43:02:ca:e1:79:71:77:4e:44:83:35:22:
         5e:a0:ca:c2:db:76:f3:90:b4:d6:77:bd:b0:47:f3:34:4b:db:
         16:50:9d:32:7c:15:18:0f:49:01:6b:99:fd:c1:ce:27:09:58:
         0a:37:5b:b8:18:d4:09:6d:e3:5b:fa:84:9a:c4:cd:58:a6:ad:
         ee:5d:95:24:42:a5:2b:ab:9a:06:a5:a6:23:f2:4c:64:f7:bf:
         c2:5c:3f:b4:1b:e0:9d:de:59:0c:6b:5e:e1:d9:6f:84:a2:61:
         5b:8d:92:fb:36:c0:0f:6c:1c:4d:a9:74:de:ef:2c:eb:ef:09:
         c1:97:21:0d:3d:45:03:ea:d3:71:cb:2d:fd:29:4f:03:f7:b6:
         ed:72:0d:22:f1:2d:ae:9d:99:ba:27:d0:cf:a2:09:bc:d7:30:
         cb:43:63:4b:57:66:55:f6:0f:bd:f6:42:b8:5e:cb:65:5e:46:
         cd:08:81:4f:e2:f4:29:a7:37:1c:8c:3a:91:eb:b9:e5:bd:07:
         f2:68:40:a0:3c:7c:fb:b3:1e:8d:7c:5a:7a:5f:59:7b:fe:5b:
         5e:bf:cf:b8:45:a1:f3:36:28:d8:47:8a:2f:7f:68:fa:02:c3:
         f2:ae:e5:e6:5e:12:79:f5:d9:56:c2:2e:cd:c2:3f:c9:2b:37:
         a7:55:cd:a5:f0:5d:32:9e:d1:8a:64:b1:b6:f1:b9:06:a0:c3:
         59:4d:24:8b:51:8a:15:6a:6d:6d:28:82:56:d6:e2:27:94:ef:
         57:47:b2:30:50:0c:97:1d:d9:25:ff:2f:e1:35:b0:20:85:05:
         b7:65:22:24:23:2e:31:00:f6:6f:ba:e2:2c:96:9f:d6:65:88:
         33:ad:20:b3:26:7c:b5:da:e9:d6:b4:b1:9d:af:1e:5a:f8:a0:
         3c:7b:b7:1d:92:f6:6d:5d:82:28:17:60:08:10:28:1a:48:8b:
         59:d8:78:b4:47:99:be:98:fc:c8:8c:d9:e7:f3:4c:e6:96:1a:
         e3:24:7a:ab:64:77:73:33:dc:ee:6b:7a:6c:a2:ae:a5:16:f4:
         a4:32:cf:4c:78:fe:9d:93:69:b4:2e:fc:d3:83:38:c7:d1:b5:
         36:bb:c1:89:25:ae:37:21:d4:5b:f1:3a:14:50:64:ed:fd:ff:
         e9:90:c4:a6:bf:47:9b:de
-----BEGIN CERTIFICATE-----
MIIGrDCCBJSgAwIBAgIJAIAkcr1l7Q/tMA0GCSqGSIb3DQEBDAUAMIGsMQswCQYD
VQQGEwJVUzEdMBsGA1UECAwURGlzdHJpY3Qgb2YgQ29sdW1iaWExEzARBgNVBAcM
Cldhc2hpbmd0b24xIjAgBgNVBAoMGVdpcmVsZXNzIElubm92YXRpb24gRm9ydW0x
IzAhBgNVBAsMGnd3dy53aXJlbGVzc2lubm92YXRpb24ub3JnMSAwHgYDVQQDDBdX
SW5uRm9ydW0gUlNBIFJvb3QgQ0EtMTAeFw0xNzEwMzAxNTE2MTdaFw0zMjEwMjYx
NTE2MTdaMIGxMQswCQYDVQQGEwJVUzEdMBsGA1UECAwURGlzdHJpY3Qgb2YgQ29s
dW1iaWExEzARBgNVBAcMCldhc2hpbmd0b24xIjAgBgNVBAoMGVdpcmVsZXNzIElu
bm92YXRpb24gRm9ydW0xIzAhBgNVBAsMGnd3dy53aXJlbGVzc2lubm92YXRpb24u
b3JnMSUwIwYDVQQDDBxXSW5uRm9ydW0gUlNBIEluc3RhbGxlciBDQS0xMIICIjAN
BgkqhkiG9w0BAQEFAAOCAg8AMIICCgKCAgEA61ajimcxUDkXKTRvc73BPA5lJsXZ
u3iSrtOJGUu1mbTXd+J5wN8ZCRgFYNVowQhgtkkZQl4CIpTk9/a8DffLKNT99inO
5Z9TlJoI2hhdJ9E6ZTywd1ziBgeFcXMQGZrpOdp1nZwTW9DgGvqoIp2F0zKBvo9j
zdtnjbBFf6bIDtH5VSt8mtdJNifYSO7FWBAjJottk6XVsdEVgE34DEI3fVkR3pRm
DMFyWDaUa5YZG0LAa+6984PC3zC7ktJggEmYjSCst852AlY+OxUCQoig9f30AS0v
I6YK4ISTuNe3B52L0KnE+sicxZjyKH4mXTd8nvGG/m7n3MrxkFD4NbHghvEfzPWL
uYvYdnHmAw3/soKorWjv4tyLUne4WuSupuuur+RBc6MwbxY5qCvXnTZhoYA2UnhD
/lcgI4ZSh2k6dsO0nS5sLeRKw77sz/V5FR7X1ykhTUbHSyk4TCbh88E5/y1jMhco
3qR3xobNFQeQZQWNabccwTHZfVDLOC6Iu32SqG4U7du1Vp4JMCDq9QAeZad2PajS
EhJo1uVtqJt41yq2Z5bp+pL6OnOsxLJCwtTn1fOVFx8NJrHjTfIuDtGn2OwdunyK
w6nPWuPY64/+El0qDxYloauC0eQU6FJtaDw7CLGL3gvFEltZkhqXxyoQr7/HN7Th
dDLXIWTwGxWQcf0CAwEAAaOByTCBxjAdBgNVHQ4EFgQUpemhdTtHFJ0axkbU5SjM
RWNzc4UwHwYDVR0jBBgwFoAUZzM6j8JJmQniDx8swZj3MtVapsMwEgYDVR0TAQH/
BAgwBgEB/wIBADAOBgNVHQ8BAf8EBAMCAYYwYAYDVR0gBFkwVzA3BglghkgBhv1s
AgEwKjAoBggrBgEFBQcCARYcaHR0cHM6Ly93d3cuZGlnaWNlcnQuY29tL0NQUzAN
BgsrBgEEAYLsEQEBBTANBgsrBgEEAYLsEQEBAjANBgkqhkiG9w0BAQwFAAOCAgEA
Ja77vZ4ckk8Ougmpvu36isGd5QuTxHK4vJDts9pmjcWxv1tH+J3fACr0BknGpBCI
iDQjic1uKa2c2Hpo6Kj3uELuDLtU+6MRvSEJEaJrQwLK4Xlxd05EgzUiXqDKwtt2
85C01ne9sEfzNEvbFlCdMnwVGA9JAWuZ/cHOJwlYCjdbuBjUCW3jW/qEmsTNWKat
7l2VJEKlK6uaBqWmI/JMZPe/wlw/tBvgnd5ZDGte4dlvhKJhW42S+zbAD2wcTal0
3u8s6+8JwZchDT1FA+rTccst/SlPA/e27XINIvEtrp2ZuifQz6IJvNcwy0NjS1dm
VfYPvfZCuF7LZV5GzQiBT+L0Kac3HIw6keu55b0H8mhAoDx8+7MejXxael9Ze/5b
Xr/PuEWh8zYo2EeKL39o+gLD8q7l5l4SefXZVsIuzcI/ySs3p1XNpfBdMp7RimSx
tvG5BqDDWU0ki1GKFWptbSiCVtbiJ5TvV0eyMFAMlx3ZJf8v4TWwIIUFt2UiJCMu
MQD2b7riLJaf1mWIM60gsyZ8tdrp1rSxna8eWvigPHu3HZL2bV2CKBdgCBAoGkiL
Wdh4tEeZvpj8yIzZ5/NM5pYa4yR6q2R3czPc7mt6bKKupRb0pDLPTHj+nZNptC78
04M4x9G1NrvBiSWuNyHUW/E6FFBk7f3/6ZDEpr9Hm94=
-----END CERTIFICATE-----
